; ModuleID = '13/476.c'
source_filename = "13/476.c"
target datalayout = "e-m:e-p270:32:32-p271:32:32-p272:64:64-i64:64-f80:128-n8:16:32:64-S128"
target triple = "x86_64-pc-linux-gnu"

@.str = private unnamed_addr constant [4 x i8] c"%d\0A\00", align 1
@.str.1 = private unnamed_addr constant [4 x i8] c"%d \00", align 1
@.str.2 = private unnamed_addr constant [3 x i8] c"%d\00", align 1

; Function Attrs: noinline nounwind uwtable
define dso_local void @main() #0 {
  %1 = alloca i32, align 4
  %2 = alloca i32, align 4
  %3 = alloca i32, align 4
  %4 = alloca i32, align 4
  %5 = alloca i32, align 4
  %6 = alloca i8*, align 8
  %7 = alloca i64, align 8
  %8 = alloca i64, align 8
  %9 = call i32 (i8*, ...) @__isoc99_scanf(i8* getelementptr inbounds ([4 x i8], [4 x i8]* @.str, i64 0, i64 0), i32* %1)
  %10 = load i32, i32* %1, align 4
  %11 = zext i32 %10 to i64
  %12 = call i8* @llvm.stacksave()
  store i8* %12, i8** %6, align 8
  %13 = alloca i32, i64 %11, align 16
  store i64 %11, i64* %7, align 8
  %14 = load i32, i32* %1, align 4
  %15 = zext i32 %14 to i64
  %16 = alloca i32, i64 %15, align 16
  store i64 %15, i64* %8, align 8
  store i32 0, i32* %5, align 4
  store i32 0, i32* %3, align 4
  br label %17

17:                                               ; preds = %26, %0
  %18 = load i32, i32* %3, align 4
  %19 = load i32, i32* %1, align 4
  %20 = icmp slt i32 %18, %19
  br i1 %20, label %21, label %29

21:                                               ; preds = %17
  %22 = load i32, i32* %3, align 4
  %23 = sext i32 %22 to i64
  %24 = getelementptr inbounds i32, i32* %13, i64 %23
  %25 = call i32 (i8*, ...) @__isoc99_scanf(i8* getelementptr inbounds ([4 x i8], [4 x i8]* @.str.1, i64 0, i64 0), i32* %24)
  br label %26

26:                                               ; preds = %21
  %27 = load i32, i32* %3, align 4
  %28 = add nsw i32 %27, 1
  store i32 %28, i32* %3, align 4
  br label %17

29:                                               ; preds = %17
  %30 = load i32, i32* %1, align 4
  %31 = sub nsw i32 %30, 1
  store i32 %31, i32* %3, align 4
  br label %32

32:                                               ; preds = %73, %29
  %33 = load i32, i32* %3, align 4
  %34 = icmp sgt i32 %33, 0
  br i1 %34, label %35, label %76

35:                                               ; preds = %32
  store i32 0, i32* %2, align 4
  %36 = load i32, i32* %3, align 4
  %37 = sub nsw i32 %36, 1
  store i32 %37, i32* %4, align 4
  br label %38

38:                                               ; preds = %55, %35
  %39 = load i32, i32* %4, align 4
  %40 = icmp sge i32 %39, 0
  br i1 %40, label %41, label %58

41:                                               ; preds = %38
  %42 = load i32, i32* %3, align 4
  %43 = sext i32 %42 to i64
  %44 = getelementptr inbounds i32, i32* %13, i64 %43
  %45 = load i32, i32* %44, align 4
  %46 = load i32, i32* %4, align 4
  %47 = sext i32 %46 to i64
  %48 = getelementptr inbounds i32, i32* %13, i64 %47
  %49 = load i32, i32* %48, align 4
  %50 = icmp ne i32 %45, %49
  br i1 %50, label %51, label %54

51:                                               ; preds = %41
  %52 = load i32, i32* %2, align 4
  %53 = add nsw i32 %52, 1
  store i32 %53, i32* %2, align 4
  br label %54

54:                                               ; preds = %51, %41
  br label %55

55:                                               ; preds = %54
  %56 = load i32, i32* %4, align 4
  %57 = add nsw i32 %56, -1
  store i32 %57, i32* %4, align 4
  br label %38

58:                                               ; preds = %38
  %59 = load i32, i32* %2, align 4
  %60 = load i32, i32* %3, align 4
  %61 = icmp eq i32 %59, %60
  br i1 %61, label %62, label %72

62:                                               ; preds = %58
  %63 = load i32, i32* %3, align 4
  %64 = sext i32 %63 to i64
  %65 = getelementptr inbounds i32, i32* %13, i64 %64
  %66 = load i32, i32* %65, align 4
  %67 = load i32, i32* %5, align 4
  %68 = sext i32 %67 to i64
  %69 = getelementptr inbounds i32, i32* %16, i64 %68
  store i32 %66, i32* %69, align 4
  %70 = load i32, i32* %5, align 4
  %71 = add nsw i32 %70, 1
  store i32 %71, i32* %5, align 4
  br label %72

72:                                               ; preds = %62, %58
  br label %73

73:                                               ; preds = %72
  %74 = load i32, i32* %3, align 4
  %75 = add nsw i32 %74, -1
  store i32 %75, i32* %3, align 4
  br label %32

76:                                               ; preds = %32
  %77 = getelementptr inbounds i32, i32* %13, i64 0
  %78 = load i32, i32* %77, align 16
  %79 = load i32, i32* %5, align 4
  %80 = sext i32 %79 to i64
  %81 = getelementptr inbounds i32, i32* %16, i64 %80
  store i32 %78, i32* %81, align 4
  %82 = load i32, i32* %5, align 4
  store i32 %82, i32* %3, align 4
  br label %83

83:                                               ; preds = %92, %76
  %84 = load i32, i32* %3, align 4
  %85 = icmp sgt i32 %84, 0
  br i1 %85, label %86, label %95

86:                                               ; preds = %83
  %87 = load i32, i32* %3, align 4
  %88 = sext i32 %87 to i64
  %89 = getelementptr inbounds i32, i32* %16, i64 %88
  %90 = load i32, i32* %89, align 4
  %91 = call i32 (i8*, ...) @printf(i8* getelementptr inbounds ([4 x i8], [4 x i8]* @.str.1, i64 0, i64 0), i32 %90)
  br label %92

92:                                               ; preds = %86
  %93 = load i32, i32* %3, align 4
  %94 = add nsw i32 %93, -1
  store i32 %94, i32* %3, align 4
  br label %83

95:                                               ; preds = %83
  %96 = getelementptr inbounds i32, i32* %16, i64 0
  %97 = load i32, i32* %96, align 16
  %98 = call i32 (i8*, ...) @printf(i8* getelementptr inbounds ([3 x i8], [3 x i8]* @.str.2, i64 0, i64 0), i32 %97)
  %99 = load i8*, i8** %6, align 8
  call void @llvm.stackrestore(i8* %99)
  ret void
}

declare dso_local i32 @__isoc99_scanf(i8*, ...) #1

; Function Attrs: nounwind
declare i8* @llvm.stacksave() #2

declare dso_local i32 @printf(i8*, ...) #1

; Function Attrs: nounwind
declare void @llvm.stackrestore(i8*) #2


!llvm.module.flags = !{!0}
!llvm.ident = !{!1}

!0 = !{i32 1, !"wchar_size", i32 4}
!1 = !{!"clang version 10.0.0-4ubuntu1 "}
